Certificate:
    Data:
        Version: 3 (0x2)
        Serial Number:
            1d:c1:f3:f5:7b:99:d6:f8:bb:52:9e:02:01:b8:88:d6
        Signature Algorithm: sha256WithRSAEncryption
        Issuer: CN=Easy-RSA CA
        Validity
            Not Before: Nov 16 17:44:21 2021 GMT
            Not After : Feb 19 17:44:21 2024 GMT
        Subject: CN=backend
        Subject Public Key Info:
            Public Key Algorithm: rsaEncryption
                RSA Public-Key: (2048 bit)
                Modulus:
                    00:e8:09:ff:69:67:82:93:0c:12:17:c5:dc:d0:bf:
                    d8:6f:72:18:e9:e7:96:84:e8:92:12:cb:05:f2:1f:
                    e6:7e:00:cf:7b:e0:6b:c9:b6:f8:1e:a5:b5:ef:a1:
                    ad:e7:7b:33:6e:56:34:2b:22:a5:d9:7d:57:62:33:
                    e6:cc:13:0c:14:5a:a5:10:19:86:df:59:8a:80:23:
                    3a:4c:27:eb:c7:21:db:28:39:2d:59:ea:d7:5d:a7:
                    59:64:e1:71:3a:b5:d8:ce:a8:04:e5:1a:00:d8:1f:
                    7e:ad:11:9f:28:6e:cc:8b:37:33:b5:ed:91:25:53:
                    ed:f1:76:bc:b8:41:09:96:19:0d:39:2f:e9:7c:89:
                    e8:e1:32:71:04:c1:54:a9:65:ed:33:66:9f:5a:22:
                    eb:23:70:8a:21:ba:2a:eb:2b:58:f8:b1:8e:3f:52:
                    ea:f4:54:9b:9a:ca:c1:5e:e9:a4:05:73:f2:ad:f4:
                    7a:89:7d:b5:dc:6a:a8:9d:20:e4:00:9c:66:ee:06:
                    d4:0d:40:eb:a2:74:55:18:55:93:7a:81:23:e0:d2:
                    8c:67:fd:dc:77:b7:c5:ab:4a:69:f7:c8:dc:23:c4:
                    3a:21:2b:4b:83:8c:dd:03:e7:0b:74:ff:27:e8:1e:
                    4a:c6:42:a0:a9:b8:d9:2b:19:8b:c7:2b:8c:b6:03:
                    fe:d7
                Exponent: 65537 (0x10001)
        X509v3 extensions:
            X509v3 Basic Constraints: 
                CA:FALSE
            X509v3 Subject Key Identifier: 
                E2:38:A5:AC:E8:33:B8:F6:9E:49:21:D9:29:B4:FD:CA:36:2B:90:A0
            X509v3 Authority Key Identifier: 
                keyid:B7:E0:17:03:4D:74:9A:FE:55:39:84:F5:34:19:8F:F6:75:21:8E:48
                DirName:/CN=Easy-RSA CA
                serial:37:71:E4:45:77:11:9F:D8:D5:46:06:3E:02:F7:ED:E4:DA:93:62:53

            X509v3 Extended Key Usage: 
                TLS Web Client Authentication
            X509v3 Key Usage: 
                Digital Signature
    Signature Algorithm: sha256WithRSAEncryption
         9e:10:6e:ec:1b:23:82:30:ee:b0:5f:96:cb:7d:af:4e:5b:12:
         ce:fc:1c:80:f0:86:48:7f:4a:ab:c6:60:08:0d:db:38:36:69:
         7c:b5:ff:f7:85:00:51:84:d3:92:45:3d:81:aa:f1:22:14:1b:
         a9:9b:37:d1:9d:17:5f:10:21:c0:ac:a5:26:e1:9e:6a:2a:02:
         86:d9:ce:f2:34:aa:11:be:0f:e1:40:43:8a:f4:91:fd:76:fa:
         fa:d2:5b:7d:19:85:5a:95:9a:d8:47:a2:86:bb:21:63:80:40:
         e7:4a:1a:9c:9c:76:52:41:d2:36:a6:28:2c:65:0a:bf:bb:27:
         b2:80:be:ae:59:de:ef:52:50:83:d8:9c:4f:17:50:94:cc:94:
         8b:d8:07:67:90:10:cc:3d:ef:7f:79:49:73:3d:03:7e:7c:aa:
         07:73:c2:e7:e0:b4:b4:a4:89:c6:69:26:b1:91:d1:b0:aa:b7:
         92:73:fe:1f:dd:a6:ba:c0:cc:a4:f2:56:f8:46:02:6a:55:ef:
         98:5f:38:7d:7d:91:b2:55:71:d4:d4:5e:a8:18:a3:c6:73:09:
         e0:ed:95:56:8d:ae:f2:ae:9b:e8:67:6d:ef:3d:77:ed:bf:12:
         74:20:b8:8b:3a:5a:a7:fd:84:90:9a:50:1b:f8:76:93:84:e6:
         f2:6a:1e:43
-----BEGIN CERTIFICATE-----
MIIDVTCCAj2gAwIBAgIQHcHz9XuZ1vi7Up4CAbiI1jANBgkqhkiG9w0BAQsFADAW
MRQwEgYDVQQDDAtFYXN5LVJTQSBDQTAeFw0yMTExMTYxNzQ0MjFaFw0yNDAyMTkx
NzQ0MjFaMBIxEDAOBgNVBAMMB2JhY2tlbmQwggEiMA0GCSqGSIb3DQEBAQUAA4IB
DwAwggEKAoIBAQDoCf9pZ4KTDBIXxdzQv9hvchjp55aE6JISywXyH+Z+AM974GvJ
tvgepbXvoa3nezNuVjQrIqXZfVdiM+bMEwwUWqUQGYbfWYqAIzpMJ+vHIdsoOS1Z
6tddp1lk4XE6tdjOqATlGgDYH36tEZ8obsyLNzO17ZElU+3xdry4QQmWGQ05L+l8
iejhMnEEwVSpZe0zZp9aIusjcIohuirrK1j4sY4/Uur0VJuaysFe6aQFc/Kt9HqJ
fbXcaqidIOQAnGbuBtQNQOuidFUYVZN6gSPg0oxn/dx3t8WrSmn3yNwjxDohK0uD
jN0D5wt0/yfoHkrGQqCpuNkrGYvHK4y2A/7XAgMBAAGjgaIwgZ8wCQYDVR0TBAIw
ADAdBgNVHQ4EFgQU4jilrOgzuPaeSSHZKbT9yjYrkKAwUQYDVR0jBEowSIAUt+AX
A010mv5VOYT1NBmP9nUhjkihGqQYMBYxFDASBgNVBAMMC0Vhc3ktUlNBIENBghQ3
ceRFdxGf2NVGBj4C9+3k2pNiUzATBgNVHSUEDDAKBggrBgEFBQcDAjALBgNVHQ8E
BAMCB4AwDQYJKoZIhvcNAQELBQADggEBAJ4QbuwbI4Iw7rBflst9r05bEs78HIDw
hkh/SqvGYAgN2zg2aXy1//eFAFGE05JFPYGq8SIUG6mbN9GdF18QIcCspSbhnmoq
AobZzvI0qhG+D+FAQ4r0kf12+vrSW30ZhVqVmthHooa7IWOAQOdKGpycdlJB0jam
KCxlCr+7J7KAvq5Z3u9SUIPYnE8XUJTMlIvYB2eQEMw97395SXM9A358qgdzwufg
tLSkicZpJrGR0bCqt5Jz/h/dprrAzKTyVvhGAmpV75hfOH19kbJVcdTUXqgYo8Zz
CeDtlVaNrvKum+hnbe89d+2/EnQguIs6Wqf9hJCaUBv4dpOE5vJqHkM=
-----END CERTIFICATE-----
