Certificate:
    Data:
        Version: 3 (0x2)
        Serial Number:
            35:f6:86:a0:ce:e2:d3:4e:75:81:43:c6:ac:56:a9:5c
        Signature Algorithm: sha256WithRSAEncryption
        Issuer: CN=Easy-RSA CA
        Validity
            Not Before: Nov 16 17:39:00 2021 GMT
            Not After : Feb 19 17:39:00 2024 GMT
        Subject: CN=vpn.server
        Subject Public Key Info:
            Public Key Algorithm: rsaEncryption
                RSA Public-Key: (2048 bit)
                Modulus:
                    00:c4:0b:73:85:71:02:1b:79:5d:db:f8:74:f5:87:
                    e8:5f:fb:f5:28:2d:bc:de:83:de:bf:c0:dd:db:e5:
                    e7:0d:f2:4d:75:b7:4c:c0:71:b8:21:33:f4:40:69:
                    fa:e9:6a:fc:35:0e:71:f6:cb:a0:7a:8c:54:fa:03:
                    44:94:59:40:96:11:de:bf:23:2b:b2:18:2a:7a:1a:
                    52:01:a8:b3:83:dd:dc:92:b1:bd:5b:23:53:52:b9:
                    f0:bf:76:40:87:eb:c4:5c:8e:b8:20:84:5e:91:ce:
                    b6:d9:ab:2b:d4:df:19:64:50:f0:c8:48:a6:de:9e:
                    64:91:61:62:c7:d6:04:db:13:8b:06:9b:30:9b:1f:
                    1a:23:08:49:69:3c:ff:9d:b9:6a:77:86:b1:78:0e:
                    d9:84:62:ce:b8:9f:af:ec:d1:37:1a:15:3e:5d:1d:
                    23:57:61:0f:71:2f:72:94:eb:10:17:bf:b7:53:9f:
                    bc:dc:96:2f:12:7c:36:fd:be:01:06:b5:7c:ce:e8:
                    b6:f5:86:91:24:a1:5f:bb:ab:5e:ea:58:74:f7:9c:
                    59:7b:e4:39:bb:85:aa:b7:f1:1c:53:9c:4f:4f:2f:
                    72:b8:5e:fb:3c:2e:60:ce:19:46:af:64:ba:14:a4:
                    c0:f6:03:c1:c4:2f:19:91:cb:af:c0:71:61:71:16:
                    a1:2b
                Exponent: 65537 (0x10001)
        X509v3 extensions:
            X509v3 Basic Constraints: 
                CA:FALSE
            X509v3 Subject Key Identifier: 
                93:13:FD:C7:53:7B:78:00:52:9D:47:A4:6F:15:F6:FF:00:56:31:5C
            X509v3 Authority Key Identifier: 
                keyid:B7:E0:17:03:4D:74:9A:FE:55:39:84:F5:34:19:8F:F6:75:21:8E:48
                DirName:/CN=Easy-RSA CA
                serial:37:71:E4:45:77:11:9F:D8:D5:46:06:3E:02:F7:ED:E4:DA:93:62:53

            X509v3 Extended Key Usage: 
                TLS Web Server Authentication
            X509v3 Key Usage: 
                Digital Signature, Key Encipherment
            X509v3 Subject Alternative Name: 
                DNS:vpn.server
    Signature Algorithm: sha256WithRSAEncryption
         b9:cb:3f:07:96:c3:3f:b7:0b:e7:54:fd:a2:c7:ac:d3:19:7e:
         27:cc:e2:6d:c4:f7:79:a3:a3:8b:f7:94:e9:e6:b3:f1:bb:cb:
         36:df:06:64:ea:9e:b6:fd:02:c0:e8:2b:9a:e2:c0:3d:02:83:
         bb:af:e7:0f:a2:fe:31:c7:53:63:7d:7f:96:85:14:88:26:7a:
         8d:48:0c:a5:b2:d8:15:e2:f6:cf:5a:0f:b5:58:98:1b:ee:dd:
         4e:5d:66:e5:f2:6d:17:73:12:fa:91:49:ba:56:b4:39:53:51:
         fe:7a:b3:78:65:10:6e:02:1f:57:f2:ea:be:87:56:38:b6:35:
         9b:0c:50:32:d2:75:e9:a3:cd:bd:43:7a:f7:58:c5:92:49:3a:
         43:f8:07:94:f3:f7:cc:f3:a4:0b:67:5e:06:df:aa:5c:1a:91:
         34:64:0a:54:82:6a:6b:f1:a8:64:3f:de:f9:17:e3:ad:42:03:
         e6:be:8f:97:6d:ec:64:ce:3c:2b:1f:c3:af:26:96:2a:2c:7d:
         3e:0b:f9:b0:db:21:87:e5:47:5d:32:8e:81:ab:6d:be:5f:69:
         89:cc:e6:8d:b4:91:ea:2d:dc:1b:bc:3e:2b:34:a5:59:59:fb:
         10:d0:66:5c:7d:14:bd:8a:2f:89:ff:71:4c:e5:52:1e:ae:76:
         66:09:fb:67
-----BEGIN CERTIFICATE-----
MIIDbzCCAlegAwIBAgIQNfaGoM7i0051gUPGrFapXDANBgkqhkiG9w0BAQsFADAW
MRQwEgYDVQQDDAtFYXN5LVJTQSBDQTAeFw0yMTExMTYxNzM5MDBaFw0yNDAyMTkx
NzM5MDBaMBUxEzARBgNVBAMMCnZwbi5zZXJ2ZXIwggEiMA0GCSqGSIb3DQEBAQUA
A4IBDwAwggEKAoIBAQDEC3OFcQIbeV3b+HT1h+hf+/UoLbzeg96/wN3b5ecN8k11
t0zAcbghM/RAafrpavw1DnH2y6B6jFT6A0SUWUCWEd6/IyuyGCp6GlIBqLOD3dyS
sb1bI1NSufC/dkCH68RcjrgghF6RzrbZqyvU3xlkUPDISKbenmSRYWLH1gTbE4sG
mzCbHxojCElpPP+duWp3hrF4DtmEYs64n6/s0TcaFT5dHSNXYQ9xL3KU6xAXv7dT
n7zcli8SfDb9vgEGtXzO6Lb1hpEkoV+7q17qWHT3nFl75Dm7haq38RxTnE9PL3K4
Xvs8LmDOGUavZLoUpMD2A8HELxmRy6/AcWFxFqErAgMBAAGjgbkwgbYwCQYDVR0T
BAIwADAdBgNVHQ4EFgQUkxP9x1N7eABSnUekbxX2/wBWMVwwUQYDVR0jBEowSIAU
t+AXA010mv5VOYT1NBmP9nUhjkihGqQYMBYxFDASBgNVBAMMC0Vhc3ktUlNBIENB
ghQ3ceRFdxGf2NVGBj4C9+3k2pNiUzATBgNVHSUEDDAKBggrBgEFBQcDATALBgNV
HQ8EBAMCBaAwFQYDVR0RBA4wDIIKdnBuLnNlcnZlcjANBgkqhkiG9w0BAQsFAAOC
AQEAucs/B5bDP7cL51T9oses0xl+J8zibcT3eaOji/eU6eaz8bvLNt8GZOqetv0C
wOgrmuLAPQKDu6/nD6L+McdTY31/loUUiCZ6jUgMpbLYFeL2z1oPtViYG+7dTl1m
5fJtF3MS+pFJula0OVNR/nqzeGUQbgIfV/LqvodWOLY1mwxQMtJ16aPNvUN691jF
kkk6Q/gHlPP3zPOkC2deBt+qXBqRNGQKVIJqa/GoZD/e+RfjrUID5r6Pl23sZM48
Kx/DryaWKix9Pgv5sNshh+VHXTKOgattvl9piczmjbSR6i3cG7w+KzSlWVn7ENBm
XH0UvYovif9xTOVSHq52Zgn7Zw==
-----END CERTIFICATE-----
